; Function Attrs: cold nounwind optsize uwtable
define internal noundef i32 @vp3_decode_end(ptr noundef readonly captures(none) %0) #1 {
  %2 = getelementptr inbounds nuw i8, ptr %0, i64 32
  %3 = load ptr, ptr %2, align 8, !tbaa !4
  tail call fastcc void @free_tables(ptr %3) #10
  %4 = getelementptr inbounds nuw i8, ptr %3, i64 32000
  tail call void @av_freep(ptr noundef nonnull %4) #9
  %5 = getelementptr inbounds nuw i8, ptr %3, i64 12
  store i32 0, ptr %5, align 4, !tbaa !179
  tail call void @vp3_decode_flush(ptr noundef %0)
  %6 = getelementptr inbounds nuw i8, ptr %3, i64 29664
  tail call void @av_refstruct_unref(ptr noundef nonnull %6) #9
  ret i32 0
}